target datalayout = "e-m:e-p270:32:32-p271:32:32-p272:64:64-i64:64-i128:128-f80:128-n8:16:32:64-S128"
target triple = "x86_64-pc-linux-gnu"

%"struct.boost::charconv::to_chars_result" = type { ptr, i32 }
%"struct.boost::charconv::detail::ryu::floating_decimal_128" = type { i128, i32, i8 }

; Function Attrs: noinline noreturn nounwind uwtable
define linkonce_odr hidden void @__clang_call_terminate(ptr noundef %0) #2 comdat {
  %2 = call ptr @__cxa_begin_catch(ptr %0) #11
  call void @_ZSt9terminatev() #12
  unreachable
}

; Function Attrs: inlinehint mustprogress nounwind uwtable
define linkonce_odr hidden noundef i32 @_ZN5boost8charconv6detail18get_real_precisionIeEEii(i32 noundef %0) #3 comdat {
  %2 = alloca i32, align 4
  %3 = alloca i32, align 4
  store i32 %0, ptr %2, align 4, !tbaa !11
  call void @llvm.lifetime.start.p0(i64 4, ptr %3) #11
  store i32 18, ptr %3, align 4, !tbaa !11
  %4 = load i32, ptr %3, align 4, !tbaa !11
  call void @llvm.lifetime.end.p0(i64 4, ptr %3) #11
  ret i32 %4
}

; Function Attrs: mustprogress nounwind uwtable
define linkonce_odr noundef i32 @_ZSt10fpclassifye(x86_fp80 noundef %0) #0 comdat {
  %2 = alloca x86_fp80, align 16
  store x86_fp80 %0, ptr %2, align 16, !tbaa !7
  %3 = load x86_fp80, ptr %2, align 16, !tbaa !7
  %4 = fcmp oeq x86_fp80 %3, 0xK00000000000000000000
  br i1 %4, label %5, label %7

5:                                                ; preds = %12, %9, %7, %1
  %6 = phi i32 [ 2, %1 ], [ 0, %7 ], [ 1, %9 ], [ %14, %12 ]
  ret i32 %6

7:                                                ; preds = %1
  %8 = fcmp uno x86_fp80 %3, %3
  br i1 %8, label %5, label %9

9:                                                ; preds = %7
  %10 = call x86_fp80 @llvm.fabs.f80(x86_fp80 %3) #13
  %11 = fcmp oeq x86_fp80 %10, 0xK7FFF8000000000000000
  br i1 %11, label %5, label %12

12:                                               ; preds = %9
  %13 = fcmp uge x86_fp80 %10, 0xK00018000000000000000
  %14 = select i1 %13, i32 4, i32 3
  br label %5
}

; Function Attrs: mustprogress nounwind uwtable
define hidden { ptr, i32 } @_ZN5boost8charconv6detail19to_chars_float_implIeEENS0_15to_chars_resultEPcS4_T_NS0_12chars_formatEi(ptr noundef %0, ptr noundef %1, x86_fp80 noundef %2, i32 noundef %3, i32 noundef %4) #0 personality ptr @__gxx_personality_v0 {
  %6 = alloca %"struct.boost::charconv::to_chars_result", align 8
  %7 = alloca ptr, align 8
  %8 = alloca ptr, align 8
  %9 = alloca x86_fp80, align 16
  %10 = alloca i32, align 4
  %11 = alloca i32, align 4
  %12 = alloca i32, align 4
  %13 = alloca %"struct.boost::charconv::detail::ryu::floating_decimal_128", align 16
  %14 = alloca i32, align 4
  %15 = alloca %"struct.boost::charconv::detail::ryu::floating_decimal_128", align 16
  %16 = alloca i32, align 4
  %17 = alloca i64, align 8
  %18 = alloca i32, align 4
  %19 = alloca %"struct.boost::charconv::detail::ryu::floating_decimal_128", align 16
  %20 = alloca i32, align 4
  %21 = alloca %"struct.boost::charconv::detail::ryu::floating_decimal_128", align 16
  %22 = alloca %"struct.boost::charconv::detail::ryu::floating_decimal_128", align 16
  %23 = alloca i32, align 4
  %24 = alloca %"struct.boost::charconv::detail::ryu::floating_decimal_128", align 16
  store ptr %0, ptr %7, align 8, !tbaa !3
  store ptr %1, ptr %8, align 8, !tbaa !3
  store x86_fp80 %2, ptr %9, align 16, !tbaa !7
  store i32 %3, ptr %10, align 4, !tbaa !9
  store i32 %4, ptr %11, align 4, !tbaa !11
  call void @llvm.lifetime.start.p0(i64 4, ptr %12) #11
  %25 = load x86_fp80, ptr %9, align 16, !tbaa !7
  %26 = invoke noundef i32 @_ZSt10fpclassifye(x86_fp80 noundef %25)
          to label %27 unwind label %172

27:                                               ; preds = %5
  store i32 %26, ptr %12, align 4, !tbaa !11
  %28 = load i32, ptr %12, align 4, !tbaa !11
  %29 = icmp eq i32 %28, 0
  br i1 %29, label %33, label %30

30:                                               ; preds = %27
  %31 = load i32, ptr %12, align 4, !tbaa !11
  %32 = icmp eq i32 %31, 1
  br i1 %32, label %33, label %58

33:                                               ; preds = %30, %27
  call void @llvm.lifetime.start.p0(i64 32, ptr %13) #11
  %34 = load x86_fp80, ptr %9, align 16, !tbaa !7
  call void @_ZN5boost8charconv6detail3ryuL20long_double_to_fd128Ee(ptr dead_on_unwind writable sret(%"struct.boost::charconv::detail::ryu::floating_decimal_128") align 16 %13, x86_fp80 noundef %34) #11
  call void @llvm.lifetime.start.p0(i64 4, ptr %14) #11
  call void @llvm.memcpy.p0.p0.i64(ptr align 16 %15, ptr align 16 %13, i64 32, i1 false), !tbaa.struct !13
  %35 = load ptr, ptr %7, align 8, !tbaa !3
  %36 = load ptr, ptr %8, align 8, !tbaa !3
  %37 = load ptr, ptr %7, align 8, !tbaa !3
  %38 = ptrtoint ptr %36 to i64
  %39 = ptrtoint ptr %37 to i64
  %40 = sub i64 %38, %39
  %41 = load i32, ptr %10, align 4, !tbaa !9
  %42 = load i32, ptr %11, align 4, !tbaa !11
  %43 = call noundef i32 @_ZN5boost8charconv6detail3ryuL16generic_to_charsENS2_20floating_decimal_128EPclNS0_12chars_formatEi(ptr noundef byval(%"struct.boost::charconv::detail::ryu::floating_decimal_128") align 16 %15, ptr noundef %35, i64 noundef %40, i32 noundef %41, i32 noundef %42) #11
  store i32 %43, ptr %14, align 4, !tbaa !11
  %44 = load i32, ptr %14, align 4, !tbaa !11
  %45 = icmp sgt i32 %44, 0
  br i1 %45, label %46, label %53

46:                                               ; preds = %33
  %47 = getelementptr inbounds nuw %"struct.boost::charconv::to_chars_result", ptr %6, i32 0, i32 0
  %48 = load ptr, ptr %7, align 8, !tbaa !3
  %49 = load i32, ptr %14, align 4, !tbaa !11
  %50 = sext i32 %49 to i64
  %51 = getelementptr inbounds i8, ptr %48, i64 %50
  store ptr %51, ptr %47, align 8, !tbaa !18
  %52 = getelementptr inbounds nuw %"struct.boost::charconv::to_chars_result", ptr %6, i32 0, i32 1
  store i32 0, ptr %52, align 8, !tbaa !21
  store i32 1, ptr %16, align 4
  br label %57

53:                                               ; preds = %33
  %54 = getelementptr inbounds nuw %"struct.boost::charconv::to_chars_result", ptr %6, i32 0, i32 0
  %55 = load ptr, ptr %8, align 8, !tbaa !3
  store ptr %55, ptr %54, align 8, !tbaa !18
  %56 = getelementptr inbounds nuw %"struct.boost::charconv::to_chars_result", ptr %6, i32 0, i32 1
  store i32 75, ptr %56, align 8, !tbaa !21
  store i32 1, ptr %16, align 4
  br label %57

57:                                               ; preds = %53, %46
  call void @llvm.lifetime.end.p0(i64 4, ptr %14) #11
  call void @llvm.lifetime.end.p0(i64 32, ptr %13) #11
  br label %170

58:                                               ; preds = %30
  call void @llvm.lifetime.start.p0(i64 8, ptr %17) #11
  %59 = load ptr, ptr %8, align 8, !tbaa !3
  %60 = load ptr, ptr %7, align 8, !tbaa !3
  %61 = ptrtoint ptr %59 to i64
  %62 = ptrtoint ptr %60 to i64
  %63 = sub i64 %61, %62
  store i64 %63, ptr %17, align 8, !tbaa !22
  call void @llvm.lifetime.start.p0(i64 4, ptr %18) #11
  %64 = load i32, ptr %11, align 4, !tbaa !11
  %65 = call noundef i32 @_ZN5boost8charconv6detail18get_real_precisionIeEEii(i32 noundef %64) #11
  store i32 %65, ptr %18, align 4, !tbaa !11
  %66 = load i64, ptr %17, align 8, !tbaa !22
  %67 = load i32, ptr %18, align 4, !tbaa !11
  %68 = sext i32 %67 to i64
  %69 = icmp slt i64 %66, %68
  br i1 %69, label %74, label %70

70:                                               ; preds = %58
  %71 = load ptr, ptr %7, align 8, !tbaa !3
  %72 = load ptr, ptr %8, align 8, !tbaa !3
  %73 = icmp ugt ptr %71, %72
  br i1 %73, label %74, label %78

74:                                               ; preds = %70, %58
  %75 = getelementptr inbounds nuw %"struct.boost::charconv::to_chars_result", ptr %6, i32 0, i32 0
  %76 = load ptr, ptr %8, align 8, !tbaa !3
  store ptr %76, ptr %75, align 8, !tbaa !18
  %77 = getelementptr inbounds nuw %"struct.boost::charconv::to_chars_result", ptr %6, i32 0, i32 1
  store i32 75, ptr %77, align 8, !tbaa !21
  store i32 1, ptr %16, align 4
  br label %169

78:                                               ; preds = %70
  %79 = load i32, ptr %10, align 4, !tbaa !9
  %80 = icmp eq i32 %79, 3
  br i1 %80, label %84, label %81

81:                                               ; preds = %78
  %82 = load i32, ptr %10, align 4, !tbaa !9
  %83 = icmp eq i32 %82, 1
  br i1 %83, label %84, label %108

84:                                               ; preds = %81, %78
  call void @llvm.lifetime.start.p0(i64 32, ptr %19) #11
  %85 = load x86_fp80, ptr %9, align 16, !tbaa !7
  call void @_ZN5boost8charconv6detail3ryuL20long_double_to_fd128Ee(ptr dead_on_unwind writable sret(%"struct.boost::charconv::detail::ryu::floating_decimal_128") align 16 %19, x86_fp80 noundef %85) #11
  call void @llvm.lifetime.start.p0(i64 4, ptr %20) #11
  call void @llvm.memcpy.p0.p0.i64(ptr align 16 %21, ptr align 16 %19, i64 32, i1 false), !tbaa.struct !13
  %86 = load ptr, ptr %7, align 8, !tbaa !3
  %87 = load ptr, ptr %8, align 8, !tbaa !3
  %88 = load ptr, ptr %7, align 8, !tbaa !3
  %89 = ptrtoint ptr %87 to i64
  %90 = ptrtoint ptr %88 to i64
  %91 = sub i64 %89, %90
  %92 = load i32, ptr %10, align 4, !tbaa !9
  %93 = load i32, ptr %11, align 4, !tbaa !11
  %94 = call noundef i32 @_ZN5boost8charconv6detail3ryuL16generic_to_charsENS2_20floating_decimal_128EPclNS0_12chars_formatEi(ptr noundef byval(%"struct.boost::charconv::detail::ryu::floating_decimal_128") align 16 %21, ptr noundef %86, i64 noundef %91, i32 noundef %92, i32 noundef %93) #11
  store i32 %94, ptr %20, align 4, !tbaa !11
  %95 = load i32, ptr %20, align 4, !tbaa !11
  %96 = icmp sgt i32 %95, 0
  br i1 %96, label %97, label %104

97:                                               ; preds = %84
  %98 = getelementptr inbounds nuw %"struct.boost::charconv::to_chars_result", ptr %6, i32 0, i32 0
  %99 = load ptr, ptr %7, align 8, !tbaa !3
  %100 = load i32, ptr %20, align 4, !tbaa !11
  %101 = sext i32 %100 to i64
  %102 = getelementptr inbounds i8, ptr %99, i64 %101
  store ptr %102, ptr %98, align 8, !tbaa !18
  %103 = getelementptr inbounds nuw %"struct.boost::charconv::to_chars_result", ptr %6, i32 0, i32 1
  store i32 0, ptr %103, align 8, !tbaa !21
  store i32 1, ptr %16, align 4
  br label %105

104:                                              ; preds = %84
  store i32 0, ptr %16, align 4
  br label %105

105:                                              ; preds = %104, %97
  call void @llvm.lifetime.end.p0(i64 4, ptr %20) #11
  call void @llvm.lifetime.end.p0(i64 32, ptr %19) #11
  %106 = load i32, ptr %16, align 4
  switch i32 %106, label %169 [
    i32 0, label %107
  ]

107:                                              ; preds = %105
  br label %157

108:                                              ; preds = %81
  %109 = load i32, ptr %10, align 4, !tbaa !9
  %110 = icmp eq i32 %109, 4
  br i1 %110, label %111, label %121

111:                                              ; preds = %108
  %112 = load ptr, ptr %7, align 8, !tbaa !3
  %113 = load ptr, ptr %8, align 8, !tbaa !3
  %114 = load x86_fp80, ptr %9, align 16, !tbaa !7
  %115 = load i32, ptr %11, align 4, !tbaa !11
  %116 = call { ptr, i32 } @_ZN5boost8charconv6detail12to_chars_hexIeEENS0_15to_chars_resultEPcS4_T_i(ptr noundef %112, ptr noundef %113, x86_fp80 noundef %114, i32 noundef %115) #11
  %117 = getelementptr inbounds nuw { ptr, i32 }, ptr %6, i32 0, i32 0
  %118 = extractvalue { ptr, i32 } %116, 0
  store ptr %118, ptr %117, align 8
  %119 = getelementptr inbounds nuw { ptr, i32 }, ptr %6, i32 0, i32 1
  %120 = extractvalue { ptr, i32 } %116, 1
  store i32 %120, ptr %119, align 8
  store i32 1, ptr %16, align 4
  br label %169

121:                                              ; preds = %108
  %122 = load i32, ptr %10, align 4, !tbaa !9
  %123 = icmp eq i32 %122, 2
  br i1 %123, label %124, label %155

124:                                              ; preds = %121
  call void @llvm.lifetime.start.p0(i64 32, ptr %22) #11
  %125 = load x86_fp80, ptr %9, align 16, !tbaa !7
  call void @_ZN5boost8charconv6detail3ryuL20long_double_to_fd128Ee(ptr dead_on_unwind writable sret(%"struct.boost::charconv::detail::ryu::floating_decimal_128") align 16 %22, x86_fp80 noundef %125) #11
  call void @llvm.lifetime.start.p0(i64 4, ptr %23) #11
  call void @llvm.memcpy.p0.p0.i64(ptr align 16 %24, ptr align 16 %22, i64 32, i1 false), !tbaa.struct !13
  %126 = load ptr, ptr %7, align 8, !tbaa !3
  %127 = load ptr, ptr %8, align 8, !tbaa !3
  %128 = load ptr, ptr %7, align 8, !tbaa !3
  %129 = ptrtoint ptr %127 to i64
  %130 = ptrtoint ptr %128 to i64
  %131 = sub i64 %129, %130
  %132 = load i32, ptr %11, align 4, !tbaa !11
  %133 = call noundef i32 @_ZN5boost8charconv6detail3ryuL22generic_to_chars_fixedENS2_20floating_decimal_128EPcli(ptr noundef byval(%"struct.boost::charconv::detail::ryu::floating_decimal_128") align 16 %24, ptr noundef %126, i64 noundef %131, i32 noundef %132) #11
  store i32 %133, ptr %23, align 4, !tbaa !11
  %134 = load i32, ptr %23, align 4, !tbaa !11
  %135 = icmp sgt i32 %134, 0
  br i1 %135, label %136, label %143

136:                                              ; preds = %124
  %137 = getelementptr inbounds nuw %"struct.boost::charconv::to_chars_result", ptr %6, i32 0, i32 0
  %138 = load ptr, ptr %7, align 8, !tbaa !3
  %139 = load i32, ptr %23, align 4, !tbaa !11
  %140 = sext i32 %139 to i64
  %141 = getelementptr inbounds i8, ptr %138, i64 %140
  store ptr %141, ptr %137, align 8, !tbaa !18
  %142 = getelementptr inbounds nuw %"struct.boost::charconv::to_chars_result", ptr %6, i32 0, i32 1
  store i32 0, ptr %142, align 8, !tbaa !21
  store i32 1, ptr %16, align 4
  br label %152

143:                                              ; preds = %124
  %144 = load i32, ptr %23, align 4, !tbaa !11
  %145 = icmp eq i32 %144, -75
  br i1 %145, label %146, label %150

146:                                              ; preds = %143
  %147 = getelementptr inbounds nuw %"struct.boost::charconv::to_chars_result", ptr %6, i32 0, i32 0
  %148 = load ptr, ptr %8, align 8, !tbaa !3
  store ptr %148, ptr %147, align 8, !tbaa !18
  %149 = getelementptr inbounds nuw %"struct.boost::charconv::to_chars_result", ptr %6, i32 0, i32 1
  store i32 75, ptr %149, align 8, !tbaa !21
  store i32 1, ptr %16, align 4
  br label %152

150:                                              ; preds = %143
  br label %151

151:                                              ; preds = %150
  store i32 0, ptr %16, align 4
  br label %152

152:                                              ; preds = %151, %146, %136
  call void @llvm.lifetime.end.p0(i64 4, ptr %23) #11
  call void @llvm.lifetime.end.p0(i64 32, ptr %22) #11
  %153 = load i32, ptr %16, align 4
  switch i32 %153, label %169 [
    i32 0, label %154
  ]

154:                                              ; preds = %152
  br label %155

155:                                              ; preds = %154, %121
  br label %156

156:                                              ; preds = %155
  br label %157

157:                                              ; preds = %156, %107
  %158 = load ptr, ptr %7, align 8, !tbaa !3
  %159 = load ptr, ptr %8, align 8, !tbaa !3
  %160 = load x86_fp80, ptr %9, align 16, !tbaa !7
  %161 = load i32, ptr %10, align 4, !tbaa !9
  %162 = load i32, ptr %11, align 4, !tbaa !11
  %163 = invoke { ptr, i32 } @_ZN5boost8charconv6detail20to_chars_printf_implIeEENS0_15to_chars_resultEPcS4_T_NS0_12chars_formatEi(ptr noundef %158, ptr noundef %159, x86_fp80 noundef %160, i32 noundef %161, i32 noundef %162)
          to label %164 unwind label %172

164:                                              ; preds = %157
  %165 = getelementptr inbounds nuw { ptr, i32 }, ptr %6, i32 0, i32 0
  %166 = extractvalue { ptr, i32 } %163, 0
  store ptr %166, ptr %165, align 8
  %167 = getelementptr inbounds nuw { ptr, i32 }, ptr %6, i32 0, i32 1
  %168 = extractvalue { ptr, i32 } %163, 1
  store i32 %168, ptr %167, align 8
  store i32 1, ptr %16, align 4
  br label %169

169:                                              ; preds = %164, %152, %111, %105, %74
  call void @llvm.lifetime.end.p0(i64 4, ptr %18) #11
  call void @llvm.lifetime.end.p0(i64 8, ptr %17) #11
  br label %170

170:                                              ; preds = %169, %57
  call void @llvm.lifetime.end.p0(i64 4, ptr %12) #11
  %171 = load { ptr, i32 }, ptr %6, align 8
  ret { ptr, i32 } %171

172:                                              ; preds = %157, %5
  %173 = landingpad { ptr, i32 }
          catch ptr null
  %174 = extractvalue { ptr, i32 } %173, 0
  call void @__clang_call_terminate(ptr %174) #12
  unreachable
}