; Function Attrs: mustprogress nounwind uwtable
define hidden { ptr, i32 } @_ZN5boost8charconv6detail19to_chars_float_implIeEENS0_15to_chars_resultEPcS4_T_NS0_12chars_formatEi(ptr noundef %0, ptr noundef %1, x86_fp80 noundef %2, i32 noundef %3, i32 noundef %4) local_unnamed_addr #0 personality ptr @__gxx_personality_v0 {
  %6 = alloca %"struct.boost::charconv::detail::ryu::floating_decimal_128", align 16
  %7 = alloca %"struct.boost::charconv::detail::ryu::floating_decimal_128", align 16
  %8 = alloca %"struct.boost::charconv::detail::ryu::floating_decimal_128", align 16
  %9 = tail call x86_fp80 @llvm.fabs.f80(x86_fp80 %2)
  %or.cond74 = fcmp ueq x86_fp80 %9, 0xK7FFF8000000000000000
  br i1 %or.cond74, label %10, label %_ZSt10fpclassifye.exit

10:                                               ; preds = %5
  call fastcc void @_ZN5boost8charconv6detail3ryuL20long_double_to_fd128Ee(ptr dead_on_unwind noalias writable align 16 %6, x86_fp80 noundef %2) #15
  %11 = ptrtoint ptr %1 to i64
  %12 = ptrtoint ptr %0 to i64
  %13 = sub i64 %11, %12
  %14 = tail call fastcc noundef i32 @_ZN5boost8charconv6detail3ryuL16generic_to_charsENS2_20floating_decimal_128EPclNS0_12chars_formatEi(ptr noundef nonnull byval(%"struct.boost::charconv::detail::ryu::floating_decimal_128") align 16 %6, ptr noundef %0, i64 noundef %13, i32 noundef %3, i32 noundef %4) #15
  %15 = icmp sgt i32 %14, 0
  %16 = zext nneg i32 %14 to i64
  %17 = getelementptr inbounds i8, ptr %0, i64 %16
  %.sroa.0.0 = select i1 %15, ptr %17, ptr %1
  %.sroa.9.0 = select i1 %15, i32 0, i32 75
  br label %45

_ZSt10fpclassifye.exit:                           ; preds = %5
  %18 = ptrtoint ptr %1 to i64
  %19 = ptrtoint ptr %0 to i64
  %20 = sub i64 %18, %19
  %21 = icmp slt i64 %20, 18
  %22 = icmp ugt ptr %0, %1
  %or.cond66 = or i1 %22, %21
  br i1 %or.cond66, label %45, label %23

23:                                               ; preds = %_ZSt10fpclassifye.exit
  %24 = and i32 %3, -3
  %or.cond4 = icmp eq i32 %24, 1
  br i1 %or.cond4, label %25, label %30

25:                                               ; preds = %23
  call fastcc void @_ZN5boost8charconv6detail3ryuL20long_double_to_fd128Ee(ptr dead_on_unwind noalias writable align 16 %7, x86_fp80 noundef %2) #15
  %26 = tail call fastcc noundef i32 @_ZN5boost8charconv6detail3ryuL16generic_to_charsENS2_20floating_decimal_128EPclNS0_12chars_formatEi(ptr noundef nonnull byval(%"struct.boost::charconv::detail::ryu::floating_decimal_128") align 16 %7, ptr noundef %0, i64 noundef %20, i32 noundef %3, i32 noundef %4) #15
  %27 = icmp slt i32 %26, 1
  %28 = zext nneg i32 %26 to i64
  %29 = getelementptr inbounds i8, ptr %0, i64 %28
  br i1 %27, label %41, label %45

30:                                               ; preds = %23
  switch i32 %3, label %41 [
    i32 4, label %31
    i32 2, label %35
  ]

31:                                               ; preds = %30
  %32 = tail call { ptr, i32 } @_ZN5boost8charconv6detail12to_chars_hexIeEENS0_15to_chars_resultEPcS4_T_i(ptr noundef %0, ptr noundef %1, x86_fp80 noundef %2, i32 noundef %4) #15
  %33 = extractvalue { ptr, i32 } %32, 0
  %34 = extractvalue { ptr, i32 } %32, 1
  br label %45

35:                                               ; preds = %30
  call fastcc void @_ZN5boost8charconv6detail3ryuL20long_double_to_fd128Ee(ptr dead_on_unwind noalias writable align 16 %8, x86_fp80 noundef %2) #15
  %36 = tail call fastcc noundef i32 @_ZN5boost8charconv6detail3ryuL22generic_to_chars_fixedENS2_20floating_decimal_128EPcli(ptr noundef nonnull byval(%"struct.boost::charconv::detail::ryu::floating_decimal_128") align 16 %8, ptr noundef %0, i64 noundef %20, i32 noundef %4) #15
  %37 = icmp sgt i32 %36, 0
  br i1 %37, label %.thread, label %40

.thread:                                          ; preds = %35
  %38 = zext nneg i32 %36 to i64
  %39 = getelementptr inbounds i8, ptr %0, i64 %38
  br label %45

40:                                               ; preds = %35
  %.not = icmp eq i32 %36, -75
  br i1 %.not, label %45, label %41

41:                                               ; preds = %30, %40, %25
  %42 = tail call { ptr, i32 } @_ZN5boost8charconv6detail20to_chars_printf_implIeEENS0_15to_chars_resultEPcS4_T_NS0_12chars_formatEi(ptr noundef %0, ptr noundef %1, x86_fp80 noundef %2, i32 noundef %3, i32 noundef %4)
  %43 = extractvalue { ptr, i32 } %42, 0
  %44 = extractvalue { ptr, i32 } %42, 1
  br label %45

45:                                               ; preds = %.thread, %31, %41, %40, %25, %_ZSt10fpclassifye.exit, %10
  %.sroa.0.1 = phi ptr [ %.sroa.0.0, %10 ], [ %43, %41 ], [ %29, %25 ], [ %33, %31 ], [ %1, %40 ], [ %1, %_ZSt10fpclassifye.exit ], [ %39, %.thread ]
  %.sroa.9.1 = phi i32 [ %.sroa.9.0, %10 ], [ %44, %41 ], [ 0, %25 ], [ %34, %31 ], [ 75, %40 ], [ 75, %_ZSt10fpclassifye.exit ], [ 0, %.thread ]
  %.fca.0.insert = insertvalue { ptr, i32 } poison, ptr %.sroa.0.1, 0
  %.fca.1.insert = insertvalue { ptr, i32 } %.fca.0.insert, i32 %.sroa.9.1, 1
  ret { ptr, i32 } %.fca.1.insert
}